target datalayout = "e-m:e-p270:32:32-p271:32:32-p272:64:64-i64:64-i128:128-f80:128-n8:16:32:64-S128"
target triple = "x86_64-pc-linux-gnu"

@roots_f = internal global ptr null, align 8
@untrusted_f = internal global ptr null, align 8
@bad_f = internal global ptr null, align 8

; Function Attrs: nounwind uwtable
define internal i32 @test_alt_chains_cert_forgery() #0 {
  %1 = alloca i32, align 4
  %2 = alloca i32, align 4
  %3 = alloca ptr, align 8
  %4 = alloca ptr, align 8
  %5 = alloca ptr, align 8
  %6 = alloca ptr, align 8
  %7 = alloca ptr, align 8
  call void @llvm.lifetime.start.p0(i64 4, ptr %1) #5
  store i32 0, ptr %1, align 4, !tbaa !9
  call void @llvm.lifetime.start.p0(i64 4, ptr %2) #5
  call void @llvm.lifetime.start.p0(i64 8, ptr %3) #5
  store ptr null, ptr %3, align 8, !tbaa !11
  call void @llvm.lifetime.start.p0(i64 8, ptr %4) #5
  store ptr null, ptr %4, align 8, !tbaa !13
  call void @llvm.lifetime.start.p0(i64 8, ptr %5) #5
  store ptr null, ptr %5, align 8, !tbaa !15
  call void @llvm.lifetime.start.p0(i64 8, ptr %6) #5
  store ptr null, ptr %6, align 8, !tbaa !17
  call void @llvm.lifetime.start.p0(i64 8, ptr %7) #5
  store ptr null, ptr %7, align 8, !tbaa !19
  %8 = call ptr @X509_STORE_new()
  store ptr %8, ptr %6, align 8, !tbaa !17
  %9 = load ptr, ptr %6, align 8, !tbaa !17
  %10 = icmp eq ptr %9, null
  br i1 %10, label %11, label %12

11:                                               ; preds = %0
  br label %56

12:                                               ; preds = %0
  %13 = load ptr, ptr %6, align 8, !tbaa !17
  %14 = call ptr @X509_LOOKUP_file()
  %15 = call ptr @X509_STORE_add_lookup(ptr noundef %13, ptr noundef %14)
  store ptr %15, ptr %7, align 8, !tbaa !19
  %16 = load ptr, ptr %7, align 8, !tbaa !19
  %17 = icmp eq ptr %16, null
  br i1 %17, label %18, label %19

18:                                               ; preds = %12
  br label %56

19:                                               ; preds = %12
  %20 = load ptr, ptr %7, align 8, !tbaa !19
  %21 = load ptr, ptr @roots_f, align 8, !tbaa !4
  %22 = call i32 @X509_LOOKUP_ctrl(ptr noundef %20, i32 noundef 1, ptr noundef %21, i64 noundef 1, ptr noundef null)
  %23 = icmp sle i32 %22, 0
  br i1 %23, label %24, label %25

24:                                               ; preds = %19
  br label %56

25:                                               ; preds = %19
  %26 = load ptr, ptr @untrusted_f, align 8, !tbaa !4
  %27 = call ptr @load_certs_pem(ptr noundef %26)
  store ptr %27, ptr %4, align 8, !tbaa !13
  %28 = load ptr, ptr @bad_f, align 8, !tbaa !4
  %29 = call ptr @load_cert_pem(ptr noundef %28, ptr noundef null)
  store ptr %29, ptr %3, align 8, !tbaa !11
  %30 = icmp eq ptr %29, null
  br i1 %30, label %31, label %32

31:                                               ; preds = %25
  br label %56

32:                                               ; preds = %25
  %33 = call ptr @X509_STORE_CTX_new()
  store ptr %33, ptr %5, align 8, !tbaa !15
  %34 = load ptr, ptr %5, align 8, !tbaa !15
  %35 = icmp eq ptr %34, null
  br i1 %35, label %36, label %37

36:                                               ; preds = %32
  br label %56

37:                                               ; preds = %32
  %38 = load ptr, ptr %5, align 8, !tbaa !15
  %39 = load ptr, ptr %6, align 8, !tbaa !17
  %40 = load ptr, ptr %3, align 8, !tbaa !11
  %41 = load ptr, ptr %4, align 8, !tbaa !13
  %42 = call i32 @X509_STORE_CTX_init(ptr noundef %38, ptr noundef %39, ptr noundef %40, ptr noundef %41)
  %43 = icmp ne i32 %42, 0
  br i1 %43, label %45, label %44

44:                                               ; preds = %37
  br label %56

45:                                               ; preds = %37
  %46 = load ptr, ptr %5, align 8, !tbaa !15
  %47 = call i32 @X509_verify_cert(ptr noundef %46)
  store i32 %47, ptr %2, align 4, !tbaa !9
  %48 = load i32, ptr %2, align 4, !tbaa !9
  %49 = icmp eq i32 %48, 0
  br i1 %49, label %50, label %55

50:                                               ; preds = %45
  %51 = load ptr, ptr %5, align 8, !tbaa !15
  %52 = call i32 @X509_STORE_CTX_get_error(ptr noundef %51)
  %53 = icmp eq i32 %52, 79
  br i1 %53, label %54, label %55

54:                                               ; preds = %50
  store i32 1, ptr %1, align 4, !tbaa !9
  br label %55

55:                                               ; preds = %54, %50, %45
  br label %56

56:                                               ; preds = %55, %44, %36, %31, %24, %18, %11
  %57 = load ptr, ptr %5, align 8, !tbaa !15
  call void @X509_STORE_CTX_free(ptr noundef %57)
  %58 = load ptr, ptr %3, align 8, !tbaa !11
  call void @X509_free(ptr noundef %58)
  %59 = load ptr, ptr %4, align 8, !tbaa !13
  call void @OSSL_STACK_OF_X509_free(ptr noundef %59)
  %60 = load ptr, ptr %6, align 8, !tbaa !17
  call void @X509_STORE_free(ptr noundef %60)
  %61 = load i32, ptr %1, align 4, !tbaa !9
  call void @llvm.lifetime.end.p0(i64 8, ptr %7) #5
  call void @llvm.lifetime.end.p0(i64 8, ptr %6) #5
  call void @llvm.lifetime.end.p0(i64 8, ptr %5) #5
  call void @llvm.lifetime.end.p0(i64 8, ptr %4) #5
  call void @llvm.lifetime.end.p0(i64 8, ptr %3) #5
  call void @llvm.lifetime.end.p0(i64 4, ptr %2) #5
  call void @llvm.lifetime.end.p0(i64 4, ptr %1) #5
  ret i32 %61
}