; Function Attrs: nounwind uwtable
define internal range(i32 0, 2) i32 @test_alt_chains_cert_forgery() #1 {
  %1 = tail call ptr @X509_STORE_new() #3
  %2 = icmp eq ptr %1, null
  br i1 %2, label %28, label %3

3:                                                ; preds = %0
  %4 = tail call ptr @X509_LOOKUP_file() #3
  %5 = tail call ptr @X509_STORE_add_lookup(ptr noundef nonnull %1, ptr noundef %4) #3
  %6 = icmp eq ptr %5, null
  br i1 %6, label %28, label %7

7:                                                ; preds = %3
  %8 = load ptr, ptr @roots_f, align 8, !tbaa !4
  %9 = tail call i32 @X509_LOOKUP_ctrl(ptr noundef nonnull %5, i32 noundef 1, ptr noundef %8, i64 noundef 1, ptr noundef null) #3
  %10 = icmp slt i32 %9, 1
  br i1 %10, label %28, label %11

11:                                               ; preds = %7
  %12 = load ptr, ptr @untrusted_f, align 8, !tbaa !4
  %13 = tail call ptr @load_certs_pem(ptr noundef %12) #3
  %14 = load ptr, ptr @bad_f, align 8, !tbaa !4
  %15 = tail call ptr @load_cert_pem(ptr noundef %14, ptr noundef null) #3
  %16 = icmp eq ptr %15, null
  br i1 %16, label %28, label %17

17:                                               ; preds = %11
  %18 = tail call ptr @X509_STORE_CTX_new() #3
  %19 = icmp eq ptr %18, null
  br i1 %19, label %28, label %20

20:                                               ; preds = %17
  %21 = tail call i32 @X509_STORE_CTX_init(ptr noundef nonnull %18, ptr noundef nonnull %1, ptr noundef nonnull %15, ptr noundef %13) #3
  %.not = icmp eq i32 %21, 0
  br i1 %.not, label %28, label %22

22:                                               ; preds = %20
  %23 = tail call i32 @X509_verify_cert(ptr noundef nonnull %18) #3
  %24 = icmp eq i32 %23, 0
  br i1 %24, label %25, label %28

25:                                               ; preds = %22
  %26 = tail call i32 @X509_STORE_CTX_get_error(ptr noundef nonnull %18) #3
  %27 = icmp eq i32 %26, 79
  %spec.select = zext i1 %27 to i32
  br label %28

28:                                               ; preds = %25, %22, %20, %17, %11, %7, %3, %0
  %.018 = phi i32 [ 0, %0 ], [ 0, %3 ], [ 0, %7 ], [ 0, %11 ], [ 0, %17 ], [ 0, %22 ], [ 0, %20 ], [ %spec.select, %25 ]
  %.017 = phi ptr [ null, %0 ], [ null, %3 ], [ null, %7 ], [ null, %11 ], [ %15, %17 ], [ %15, %22 ], [ %15, %20 ], [ %15, %25 ]
  %.016 = phi ptr [ null, %0 ], [ null, %3 ], [ null, %7 ], [ %13, %11 ], [ %13, %17 ], [ %13, %22 ], [ %13, %20 ], [ %13, %25 ]
  %.0 = phi ptr [ null, %0 ], [ null, %3 ], [ null, %7 ], [ null, %11 ], [ null, %17 ], [ %18, %22 ], [ %18, %20 ], [ %18, %25 ]
  tail call void @X509_STORE_CTX_free(ptr noundef %.0) #3
  tail call void @X509_free(ptr noundef %.017) #3
  tail call void @OSSL_STACK_OF_X509_free(ptr noundef %.016) #3
  tail call void @X509_STORE_free(ptr noundef %1) #3
  ret i32 %.018
}